; Function Attrs: mustprogress nounwind uwtable
define dso_local void @_ZN4node7tracing15NodeTraceWriter5FlushEb(ptr noundef nonnull align 8 dereferenceable(1409) %this, i1 noundef zeroext %blocking) unnamed_addr #0 align 2 {
entry:
  %request_mutex_ = getelementptr inbounds i8, ptr %this, i64 312
  tail call void @uv_mutex_lock(ptr noundef nonnull %request_mutex_) #12
  %stream_mutex_ = getelementptr inbounds i8, ptr %this, i64 272
  tail call void @uv_mutex_lock(ptr noundef nonnull %stream_mutex_) #12
  %json_trace_writer_ = getelementptr inbounds i8, ptr %this, i64 1400
  %0 = load ptr, ptr %json_trace_writer_, align 8
  %cmp.i.not = icmp eq ptr %0, null
  tail call void @uv_mutex_unlock(ptr noundef nonnull %stream_mutex_) #12
  br i1 %cmp.i.not, label %cleanup13, label %cleanup.cont

cleanup.cont:                                     ; preds = %entry
  %num_write_requests_ = getelementptr inbounds i8, ptr %this, i64 976
  %1 = load i32, ptr %num_write_requests_, align 8
  %inc = add nsw i32 %1, 1
  store i32 %inc, ptr %num_write_requests_, align 8
  %flush_signal_ = getelementptr inbounds i8, ptr %this, i64 16
  %call2 = tail call i32 @uv_async_send(ptr noundef nonnull %flush_signal_) #12
  %cmp.not = icmp eq i32 %call2, 0
  br i1 %cmp.not, label %do.end9, label %do.body6

do.body6:                                         ; preds = %cleanup.cont
  tail call void @_ZN4node6AssertERKNS_13AssertionInfoE(ptr noundef nonnull align 8 dereferenceable(24) @_ZZN4node7tracing15NodeTraceWriter5FlushEbE4args) #12
  tail call void @abort() #13
  unreachable

do.end9:                                          ; preds = %cleanup.cont
  %highest_request_id_completed_ = getelementptr inbounds i8, ptr %this, i64 980
  %2 = load i32, ptr %highest_request_id_completed_, align 4
  %cmp11.not = icmp sge i32 %1, %2
  %or.cond.not = select i1 %blocking, i1 %cmp11.not, i1 false
  br i1 %or.cond.not, label %while.body.preheader, label %cleanup13

while.body.preheader:                             ; preds = %do.end9
  %request_cond_ = getelementptr inbounds i8, ptr %this, i64 352
  br label %while.body

while.body:                                       ; preds = %while.body.preheader, %while.body
  tail call void @uv_cond_wait(ptr noundef nonnull %request_cond_, ptr noundef nonnull %request_mutex_) #12
  %.old = load i32, ptr %highest_request_id_completed_, align 4
  %cmp11.not.old = icmp slt i32 %1, %.old
  br i1 %cmp11.not.old, label %cleanup13, label %while.body

cleanup13:                                        ; preds = %while.body, %do.end9, %entry
  tail call void @uv_mutex_unlock(ptr noundef nonnull %request_mutex_) #12
  ret void
}